target datalayout = "e-m:e-p270:32:32-p271:32:32-p272:64:64-i64:64-i128:128-f80:128-n8:16:32:64-S128"
target triple = "x86_64-pc-linux-gnu"

%"class.cv::Mat" = type { i32, i32, i32, i32, ptr, ptr, ptr, ptr, ptr, ptr, %"struct.cv::MatSize", %"struct.cv::MatStep" }
%"struct.cv::MatSize" = type { ptr }
%"struct.cv::MatStep" = type { ptr, [2 x i64] }
%"class.cv::Rect_.3" = type { float, float, float, float }
%"class.cv::TrackerDaSiamRPNImpl" = type { %"class.cv::TrackerDaSiamRPN", %"class.cv::dnn::dnn4_v20241223::Net", %"class.cv::dnn::dnn4_v20241223::Net", %"class.cv::dnn::dnn4_v20241223::Net", %"class.cv::Rect_", %"class.cv::Mat", %"struct.cv::TrackerDaSiamRPNImpl::trackerConfig" }
%"class.cv::TrackerDaSiamRPN" = type { %"class.cv::Tracker" }
%"class.cv::Tracker" = type { ptr }
%"class.cv::dnn::dnn4_v20241223::Net" = type { %"struct.cv::Ptr" }
%"struct.cv::Ptr" = type { %"class.std::shared_ptr" }
%"class.std::shared_ptr" = type { %"class.std::__shared_ptr" }
%"class.std::__shared_ptr" = type { ptr, %"class.std::__shared_count" }
%"class.std::__shared_count" = type { ptr }
%"class.cv::Rect_" = type { i32, i32, i32, i32 }
%"struct.cv::TrackerDaSiamRPNImpl::trackerConfig" = type { float, float, i32, i8, i32, float, i32, i32, float, %"class.std::vector", i32, %"class.cv::Mat", %"class.cv::Mat", %"class.cv::Scalar_", %"class.cv::Size_", %"class.cv::Rect_.3", i32, float }
%"class.std::vector" = type { %"struct.std::_Vector_base" }
%"struct.std::_Vector_base" = type { %"struct.std::_Vector_base<float, std::allocator<float>>::_Vector_impl" }
%"struct.std::_Vector_base<float, std::allocator<float>>::_Vector_impl" = type { %"struct.std::_Vector_base<float, std::allocator<float>>::_Vector_impl_data" }
%"struct.std::_Vector_base<float, std::allocator<float>>::_Vector_impl_data" = type { ptr, ptr, ptr }
%"class.cv::Scalar_" = type { %"class.cv::Vec" }
%"class.cv::Vec" = type { %"class.cv::Matx" }
%"class.cv::Matx" = type { [4 x double] }
%"class.cv::Size_" = type { i32, i32 }
%"class.cv::_InputArray" = type { i32, ptr, %"class.cv::Size_" }

; Function Attrs: inlinehint mustprogress nounwind uwtable
define linkonce_odr hidden void @_ZN2cv5Rect_IiEC2Eiiii(ptr noundef nonnull align 4 dereferenceable(16) %0, i32 noundef %1, i32 noundef %2, i32 noundef %3, i32 noundef %4) unnamed_addr #8 comdat align 2 {
  %6 = alloca ptr, align 8
  %7 = alloca i32, align 4
  %8 = alloca i32, align 4
  %9 = alloca i32, align 4
  %10 = alloca i32, align 4
  store ptr %0, ptr %6, align 8, !tbaa !27
  store i32 %1, ptr %7, align 4, !tbaa !37
  store i32 %2, ptr %8, align 4, !tbaa !37
  store i32 %3, ptr %9, align 4, !tbaa !37
  store i32 %4, ptr %10, align 4, !tbaa !37
  %11 = load ptr, ptr %6, align 8
  %12 = getelementptr inbounds nuw %"class.cv::Rect_", ptr %11, i32 0, i32 0
  %13 = load i32, ptr %7, align 4, !tbaa !37
  store i32 %13, ptr %12, align 4, !tbaa !29
  %14 = getelementptr inbounds nuw %"class.cv::Rect_", ptr %11, i32 0, i32 1
  %15 = load i32, ptr %8, align 4, !tbaa !37
  store i32 %15, ptr %14, align 4, !tbaa !32
  %16 = getelementptr inbounds nuw %"class.cv::Rect_", ptr %11, i32 0, i32 2
  %17 = load i32, ptr %9, align 4, !tbaa !37
  store i32 %17, ptr %16, align 4, !tbaa !31
  %18 = getelementptr inbounds nuw %"class.cv::Rect_", ptr %11, i32 0, i32 3
  %19 = load i32, ptr %10, align 4, !tbaa !37
  store i32 %19, ptr %18, align 4, !tbaa !33
  ret void
}

; Function Attrs: inlinehint mustprogress uwtable
define linkonce_odr hidden void @_ZNK2cv11_InputArray6getMatEi(ptr dead_on_unwind noalias writable sret(%"class.cv::Mat") align 8 %0, ptr noundef nonnull align 8 dereferenceable(24) %1, i32 noundef %2) #6 comdat align 2 {
  %4 = alloca ptr, align 8
  %5 = alloca ptr, align 8
  %6 = alloca i32, align 4
  store ptr %0, ptr %4, align 8
  store ptr %1, ptr %5, align 8, !tbaa !25
  store i32 %2, ptr %6, align 4, !tbaa !37
  %7 = load ptr, ptr %5, align 8
  %8 = call noundef i32 @_ZNK2cv11_InputArray4kindEv(ptr noundef nonnull align 8 dereferenceable(24) %7)
  %9 = icmp eq i32 %8, 65536
  br i1 %9, label %10, label %16

10:                                               ; preds = %3
  %11 = load i32, ptr %6, align 4, !tbaa !37
  %12 = icmp slt i32 %11, 0
  br i1 %12, label %13, label %16

13:                                               ; preds = %10
  %14 = getelementptr inbounds nuw %"class.cv::_InputArray", ptr %7, i32 0, i32 1
  %15 = load ptr, ptr %14, align 8, !tbaa !38
  call void @_ZN2cv3MatC1ERKS0_(ptr noundef nonnull align 8 dereferenceable(96) %0, ptr noundef nonnull align 8 dereferenceable(96) %15)
  br label %18

16:                                               ; preds = %10, %3
  %17 = load i32, ptr %6, align 4, !tbaa !37
  call void @_ZNK2cv11_InputArray7getMat_Ei(ptr dead_on_unwind writable sret(%"class.cv::Mat") align 8 %0, ptr noundef nonnull align 8 dereferenceable(24) %7, i32 noundef %17)
  br label %18

18:                                               ; preds = %16, %13
  ret void
}

; Function Attrs: mustprogress uwtable
define hidden noundef zeroext i1 @_ZN2cv20TrackerDaSiamRPNImpl6updateERKNS_11_InputArrayERNS_5Rect_IiEE(ptr noundef nonnull align 8 dereferenceable(496) %0, ptr noundef nonnull align 8 dereferenceable(24) %1, ptr noundef nonnull align 4 dereferenceable(16) %2) unnamed_addr #0 align 2 personality ptr @__gxx_personality_v0 {
  %4 = alloca ptr, align 8
  %5 = alloca ptr, align 8
  %6 = alloca ptr, align 8
  %7 = alloca %"class.cv::Mat", align 8
  %8 = alloca %"class.cv::Mat", align 8
  %9 = alloca ptr, align 8
  %10 = alloca i32, align 4
  %11 = alloca %"class.cv::Mat", align 8
  %12 = alloca %"class.cv::Rect_", align 4
  store ptr %0, ptr %4, align 8, !tbaa !23
  store ptr %1, ptr %5, align 8, !tbaa !25
  store ptr %2, ptr %6, align 8, !tbaa !27
  %13 = load ptr, ptr %4, align 8
  call void @llvm.lifetime.start.p0(i64 96, ptr %7) #21
  call void @llvm.lifetime.start.p0(i64 96, ptr %8) #21
  %14 = load ptr, ptr %5, align 8, !tbaa !25
  call void @_ZNK2cv11_InputArray6getMatEi(ptr dead_on_unwind writable sret(%"class.cv::Mat") align 8 %8, ptr noundef nonnull align 8 dereferenceable(24) %14, i32 noundef -1)
  invoke void @_ZNK2cv3Mat5cloneEv(ptr dead_on_unwind writable sret(%"class.cv::Mat") align 8 %7, ptr noundef nonnull align 8 dereferenceable(96) %8)
          to label %15 unwind label %58

15:                                               ; preds = %3
  %16 = getelementptr inbounds nuw %"class.cv::TrackerDaSiamRPNImpl", ptr %13, i32 0, i32 5
  %17 = invoke noundef nonnull align 8 dereferenceable(96) ptr @_ZN2cv3MataSEOS0_(ptr noundef nonnull align 8 dereferenceable(96) %16, ptr noundef nonnull align 8 dereferenceable(96) %7)
          to label %18 unwind label %62

18:                                               ; preds = %15
  call void @_ZN2cv3MatD1Ev(ptr noundef nonnull align 8 dereferenceable(96) %7) #21
  call void @_ZN2cv3MatD1Ev(ptr noundef nonnull align 8 dereferenceable(96) %8) #21
  call void @llvm.lifetime.end.p0(i64 96, ptr %8) #21
  call void @llvm.lifetime.end.p0(i64 96, ptr %7) #21
  %19 = getelementptr inbounds nuw %"class.cv::TrackerDaSiamRPNImpl", ptr %13, i32 0, i32 5
  call void @_ZN2cv3MatC1ERKS0_(ptr noundef nonnull align 8 dereferenceable(96) %11, ptr noundef nonnull align 8 dereferenceable(96) %19)
  invoke void @_ZN2cv20TrackerDaSiamRPNImpl11trackerEvalENS_3MatE(ptr noundef nonnull align 8 dereferenceable(496) %13, ptr noundef %11)
          to label %20 unwind label %67

20:                                               ; preds = %18
  call void @_ZN2cv3MatD1Ev(ptr noundef nonnull align 8 dereferenceable(96) %11) #21
  call void @llvm.lifetime.start.p0(i64 16, ptr %12) #21
  %21 = getelementptr inbounds nuw %"class.cv::TrackerDaSiamRPNImpl", ptr %13, i32 0, i32 6
  %22 = getelementptr inbounds nuw %"struct.cv::TrackerDaSiamRPNImpl::trackerConfig", ptr %21, i32 0, i32 15
  %23 = getelementptr inbounds nuw %"class.cv::Rect_.3", ptr %22, i32 0, i32 0
  %24 = load float, ptr %23, align 8, !tbaa !125
  %25 = getelementptr inbounds nuw %"class.cv::TrackerDaSiamRPNImpl", ptr %13, i32 0, i32 6
  %26 = getelementptr inbounds nuw %"struct.cv::TrackerDaSiamRPNImpl::trackerConfig", ptr %25, i32 0, i32 15
  %27 = getelementptr inbounds nuw %"class.cv::Rect_.3", ptr %26, i32 0, i32 2
  %28 = load float, ptr %27, align 8, !tbaa !126
  %29 = fdiv float %28, 2.000000e+00
  %30 = fptosi float %29 to i32
  %31 = sitofp i32 %30 to float
  %32 = fsub float %24, %31
  %33 = fptosi float %32 to i32
  %34 = getelementptr inbounds nuw %"class.cv::TrackerDaSiamRPNImpl", ptr %13, i32 0, i32 6
  %35 = getelementptr inbounds nuw %"struct.cv::TrackerDaSiamRPNImpl::trackerConfig", ptr %34, i32 0, i32 15
  %36 = getelementptr inbounds nuw %"class.cv::Rect_.3", ptr %35, i32 0, i32 1
  %37 = load float, ptr %36, align 4, !tbaa !127
  %38 = getelementptr inbounds nuw %"class.cv::TrackerDaSiamRPNImpl", ptr %13, i32 0, i32 6
  %39 = getelementptr inbounds nuw %"struct.cv::TrackerDaSiamRPNImpl::trackerConfig", ptr %38, i32 0, i32 15
  %40 = getelementptr inbounds nuw %"class.cv::Rect_.3", ptr %39, i32 0, i32 3
  %41 = load float, ptr %40, align 4, !tbaa !128
  %42 = fdiv float %41, 2.000000e+00
  %43 = fptosi float %42 to i32
  %44 = sitofp i32 %43 to float
  %45 = fsub float %37, %44
  %46 = fptosi float %45 to i32
  %47 = getelementptr inbounds nuw %"class.cv::TrackerDaSiamRPNImpl", ptr %13, i32 0, i32 6
  %48 = getelementptr inbounds nuw %"struct.cv::TrackerDaSiamRPNImpl::trackerConfig", ptr %47, i32 0, i32 15
  %49 = getelementptr inbounds nuw %"class.cv::Rect_.3", ptr %48, i32 0, i32 2
  %50 = load float, ptr %49, align 8, !tbaa !126
  %51 = fptosi float %50 to i32
  %52 = getelementptr inbounds nuw %"class.cv::TrackerDaSiamRPNImpl", ptr %13, i32 0, i32 6
  %53 = getelementptr inbounds nuw %"struct.cv::TrackerDaSiamRPNImpl::trackerConfig", ptr %52, i32 0, i32 15
  %54 = getelementptr inbounds nuw %"class.cv::Rect_.3", ptr %53, i32 0, i32 3
  %55 = load float, ptr %54, align 4, !tbaa !128
  %56 = fptosi float %55 to i32
  call void @_ZN2cv5Rect_IiEC2Eiiii(ptr noundef nonnull align 4 dereferenceable(16) %12, i32 noundef %33, i32 noundef %46, i32 noundef %51, i32 noundef %56)
  %57 = load ptr, ptr %6, align 8, !tbaa !27
  call void @llvm.memcpy.p0.p0.i64(ptr align 4 %57, ptr align 4 %12, i64 16, i1 false), !tbaa.struct !129
  call void @llvm.lifetime.end.p0(i64 16, ptr %12) #21
  ret i1 true

58:                                               ; preds = %3
  %59 = landingpad { ptr, i32 }
          cleanup
  %60 = extractvalue { ptr, i32 } %59, 0
  store ptr %60, ptr %9, align 8
  %61 = extractvalue { ptr, i32 } %59, 1
  store i32 %61, ptr %10, align 4
  br label %66

62:                                               ; preds = %15
  %63 = landingpad { ptr, i32 }
          cleanup
  %64 = extractvalue { ptr, i32 } %63, 0
  store ptr %64, ptr %9, align 8
  %65 = extractvalue { ptr, i32 } %63, 1
  store i32 %65, ptr %10, align 4
  call void @_ZN2cv3MatD1Ev(ptr noundef nonnull align 8 dereferenceable(96) %7) #21
  br label %66

66:                                               ; preds = %62, %58
  call void @_ZN2cv3MatD1Ev(ptr noundef nonnull align 8 dereferenceable(96) %8) #21
  call void @llvm.lifetime.end.p0(i64 96, ptr %8) #21
  call void @llvm.lifetime.end.p0(i64 96, ptr %7) #21
  br label %71

67:                                               ; preds = %18
  %68 = landingpad { ptr, i32 }
          cleanup
  %69 = extractvalue { ptr, i32 } %68, 0
  store ptr %69, ptr %9, align 8
  %70 = extractvalue { ptr, i32 } %68, 1
  store i32 %70, ptr %10, align 4
  call void @_ZN2cv3MatD1Ev(ptr noundef nonnull align 8 dereferenceable(96) %11) #21
  br label %71

71:                                               ; preds = %67, %66
  %72 = load ptr, ptr %9, align 8
  %73 = load i32, ptr %10, align 4
  %74 = insertvalue { ptr, i32 } poison, ptr %72, 0
  %75 = insertvalue { ptr, i32 } %74, i32 %73, 1
  resume { ptr, i32 } %75
}