; Function Attrs: mustprogress uwtable
define hidden noundef zeroext i1 @_ZN2cv20TrackerDaSiamRPNImpl6updateERKNS_11_InputArrayERNS_5Rect_IiEE(ptr noundef nonnull align 8 dereferenceable(496) %0, ptr noundef nonnull align 8 dereferenceable(24) %1, ptr noundef nonnull writeonly align 4 captures(none) dereferenceable(16) %2) unnamed_addr #0 align 2 personality ptr @__gxx_personality_v0 {
  %4 = alloca %"class.cv::Mat", align 8
  %5 = alloca %"class.cv::Mat", align 8
  %6 = alloca %"class.cv::Mat", align 8
  call void @llvm.lifetime.start.p0(i64 96, ptr nonnull %4) #23
  call void @llvm.lifetime.start.p0(i64 96, ptr nonnull %5) #23
  %7 = tail call noundef i32 @_ZNK2cv11_InputArray4kindEv(ptr noundef nonnull align 8 dereferenceable(24) %1), !noalias !106
  %8 = icmp eq i32 %7, 65536
  br i1 %8, label %9, label %12

9:                                                ; preds = %3
  %10 = getelementptr inbounds nuw i8, ptr %1, i64 8
  %11 = load ptr, ptr %10, align 8, !tbaa !23, !noalias !106
  call void @_ZN2cv3MatC1ERKS0_(ptr noundef nonnull align 8 dereferenceable(96) %5, ptr noundef nonnull align 8 dereferenceable(96) %11)
  br label %_ZNK2cv11_InputArray6getMatEi.exit

12:                                               ; preds = %3
  call void @_ZNK2cv11_InputArray7getMat_Ei(ptr dead_on_unwind nonnull writable sret(%"class.cv::Mat") align 8 %5, ptr noundef nonnull align 8 dereferenceable(24) %1, i32 noundef -1)
  br label %_ZNK2cv11_InputArray6getMatEi.exit

_ZNK2cv11_InputArray6getMatEi.exit:               ; preds = %9, %12
  invoke void @_ZNK2cv3Mat5cloneEv(ptr dead_on_unwind nonnull writable sret(%"class.cv::Mat") align 8 %4, ptr noundef nonnull align 8 dereferenceable(96) %5)
          to label %13 unwind label %38

13:                                               ; preds = %_ZNK2cv11_InputArray6getMatEi.exit
  %14 = getelementptr inbounds nuw i8, ptr %0, i64 72
  %15 = invoke noundef nonnull align 8 dereferenceable(96) ptr @_ZN2cv3MataSEOS0_(ptr noundef nonnull align 8 dereferenceable(96) %14, ptr noundef nonnull align 8 dereferenceable(96) %4)
          to label %16 unwind label %40

16:                                               ; preds = %13
  call void @_ZN2cv3MatD1Ev(ptr noundef nonnull align 8 dereferenceable(96) %4) #23
  call void @_ZN2cv3MatD1Ev(ptr noundef nonnull align 8 dereferenceable(96) %5) #23
  call void @llvm.lifetime.end.p0(i64 96, ptr nonnull %5) #23
  call void @llvm.lifetime.end.p0(i64 96, ptr nonnull %4) #23
  call void @_ZN2cv3MatC1ERKS0_(ptr noundef nonnull align 8 dereferenceable(96) %6, ptr noundef nonnull align 8 dereferenceable(96) %14)
  invoke void @_ZN2cv20TrackerDaSiamRPNImpl11trackerEvalENS_3MatE(ptr noundef nonnull align 8 dereferenceable(496) %0, ptr noundef nonnull %6)
          to label %17 unwind label %43

17:                                               ; preds = %16
  call void @_ZN2cv3MatD1Ev(ptr noundef nonnull align 8 dereferenceable(96) %6) #23
  %18 = getelementptr inbounds nuw i8, ptr %0, i64 472
  %19 = load float, ptr %18, align 8, !tbaa !109
  %20 = getelementptr inbounds nuw i8, ptr %0, i64 480
  %21 = load float, ptr %20, align 8, !tbaa !110
  %22 = fmul float %21, 5.000000e-01
  %23 = fptosi float %22 to i32
  %24 = sitofp i32 %23 to float
  %25 = fsub float %19, %24
  %26 = fptosi float %25 to i32
  %27 = getelementptr inbounds nuw i8, ptr %0, i64 476
  %28 = load float, ptr %27, align 4, !tbaa !111
  %29 = getelementptr inbounds nuw i8, ptr %0, i64 484
  %30 = load float, ptr %29, align 4, !tbaa !112
  %31 = fmul float %30, 5.000000e-01
  %32 = fptosi float %31 to i32
  %33 = sitofp i32 %32 to float
  %34 = fsub float %28, %33
  %35 = fptosi float %34 to i32
  %36 = fptosi float %21 to i32
  %37 = fptosi float %30 to i32
  store i32 %26, ptr %2, align 4, !tbaa !57
  %.sroa.4.0..sroa_idx = getelementptr inbounds nuw i8, ptr %2, i64 4
  store i32 %35, ptr %.sroa.4.0..sroa_idx, align 4, !tbaa !57
  %.sroa.5.0..sroa_idx = getelementptr inbounds nuw i8, ptr %2, i64 8
  store i32 %36, ptr %.sroa.5.0..sroa_idx, align 4, !tbaa !57
  %.sroa.6.0..sroa_idx = getelementptr inbounds nuw i8, ptr %2, i64 12
  store i32 %37, ptr %.sroa.6.0..sroa_idx, align 4, !tbaa !57
  ret i1 true

38:                                               ; preds = %_ZNK2cv11_InputArray6getMatEi.exit
  %39 = landingpad { ptr, i32 }
          cleanup
  br label %42

40:                                               ; preds = %13
  %41 = landingpad { ptr, i32 }
          cleanup
  call void @_ZN2cv3MatD1Ev(ptr noundef nonnull align 8 dereferenceable(96) %4) #23
  br label %42

42:                                               ; preds = %40, %38
  %.pn = phi { ptr, i32 } [ %41, %40 ], [ %39, %38 ]
  call void @_ZN2cv3MatD1Ev(ptr noundef nonnull align 8 dereferenceable(96) %5) #23
  call void @llvm.lifetime.end.p0(i64 96, ptr nonnull %5) #23
  call void @llvm.lifetime.end.p0(i64 96, ptr nonnull %4) #23
  br label %45

43:                                               ; preds = %16
  %44 = landingpad { ptr, i32 }
          cleanup
  call void @_ZN2cv3MatD1Ev(ptr noundef nonnull align 8 dereferenceable(96) %6) #23
  br label %45

45:                                               ; preds = %43, %42
  %.pn7 = phi { ptr, i32 } [ %44, %43 ], [ %.pn, %42 ]
  resume { ptr, i32 } %.pn7
}